target datalayout = "e-m:e-p270:32:32-p271:32:32-p272:64:64-i64:64-i128:128-f80:128-n8:16:32:64-S128"
target triple = "x86_64-pc-linux-gnu"

%struct.Cbs2_Par_t_ = type { i32, i32, i32, i32, i32, i32, i32, i32, i32, i32, i32, i32 }
%struct.Cbs2_Man_t_ = type { %struct.Cbs2_Par_t_, ptr, %struct.Cbs2_Que_t_, %struct.Cbs2_Que_t_, %struct.Cbs2_Que_t_, ptr, ptr, %struct.Vec_Str_t_, %struct.Vec_Str_t_, %struct.Vec_Int_t_, %struct.Vec_Int_t_, %struct.Vec_Int_t_, %struct.Vec_Int_t_, %struct.Vec_Int_t_, %struct.Vec_Int_t_, %struct.Vec_Int_t_, %struct.Vec_Int_t_, i32, i32, i32, i32, i32, i32, i32, i64, i64, i64, i64, i64, [3 x i32], [2 x i32], i32 }
%struct.Cbs2_Que_t_ = type { i32, i32, i32, ptr }
%struct.Vec_Str_t_ = type { i32, i32, ptr }
%struct.Vec_Int_t_ = type { i32, i32, ptr }

; Function Attrs: inlinehint nounwind uwtable
define internal void @Vec_IntWriteEntry(ptr noundef %0, i32 noundef %1, i32 noundef %2) #5 {
  %4 = alloca ptr, align 8
  %5 = alloca i32, align 4
  %6 = alloca i32, align 4
  store ptr %0, ptr %4, align 8, !tbaa !42
  store i32 %1, ptr %5, align 4, !tbaa !19
  store i32 %2, ptr %6, align 4, !tbaa !19
  %7 = load i32, ptr %6, align 4, !tbaa !19
  %8 = load ptr, ptr %4, align 8, !tbaa !42
  %9 = getelementptr inbounds nuw %struct.Vec_Int_t_, ptr %8, i32 0, i32 2
  %10 = load ptr, ptr %9, align 8, !tbaa !45
  %11 = load i32, ptr %5, align 4, !tbaa !19
  %12 = sext i32 %11 to i64
  %13 = getelementptr inbounds i32, ptr %10, i64 %12
  store i32 %7, ptr %13, align 4, !tbaa !19
  ret void
}

; Function Attrs: inlinehint nounwind uwtable
define internal i32 @Abc_Var2Lit(i32 noundef %0, i32 noundef %1) #5 {
  %3 = alloca i32, align 4
  %4 = alloca i32, align 4
  store i32 %0, ptr %3, align 4, !tbaa !19
  store i32 %1, ptr %4, align 4, !tbaa !19
  %5 = load i32, ptr %3, align 4, !tbaa !19
  %6 = load i32, ptr %3, align 4, !tbaa !19
  %7 = add nsw i32 %5, %6
  %8 = load i32, ptr %4, align 4, !tbaa !19
  %9 = add nsw i32 %7, %8
  ret i32 %9
}

; Function Attrs: nounwind uwtable
define void @Cbs2_ObjDeleteFanout(ptr noundef %0, i32 noundef %1) #0 {
  %3 = alloca ptr, align 8
  %4 = alloca i32, align 4
  store ptr %0, ptr %3, align 8, !tbaa !17
  store i32 %1, ptr %4, align 4, !tbaa !19
  %5 = load ptr, ptr %3, align 8, !tbaa !17
  %6 = getelementptr inbounds nuw %struct.Cbs2_Man_t_, ptr %5, i32 0, i32 12
  %7 = load i32, ptr %4, align 4, !tbaa !19
  %8 = call i32 @Abc_Var2Lit(i32 noundef %7, i32 noundef 0)
  call void @Vec_IntWriteEntry(ptr noundef %6, i32 noundef %8, i32 noundef 0)
  %9 = load ptr, ptr %3, align 8, !tbaa !17
  %10 = getelementptr inbounds nuw %struct.Cbs2_Man_t_, ptr %9, i32 0, i32 12
  %11 = load i32, ptr %4, align 4, !tbaa !19
  %12 = call i32 @Abc_Var2Lit(i32 noundef %11, i32 noundef 1)
  call void @Vec_IntWriteEntry(ptr noundef %10, i32 noundef %12, i32 noundef 0)
  %13 = load ptr, ptr %3, align 8, !tbaa !17
  %14 = getelementptr inbounds nuw %struct.Cbs2_Man_t_, ptr %13, i32 0, i32 13
  %15 = load i32, ptr %4, align 4, !tbaa !19
  call void @Vec_IntWriteEntry(ptr noundef %14, i32 noundef %15, i32 noundef 0)
  ret void
}