; Function Attrs: mustprogress nofree norecurse nosync nounwind willreturn memory(write, argmem: readwrite, inaccessiblemem: none) uwtable
define void @Cbs2_ObjDeleteFanout(ptr noundef readonly captures(none) %0, i32 noundef %1) local_unnamed_addr #15 {
  %3 = shl nsw i32 %1, 1
  %4 = getelementptr i8, ptr %0, i64 232
  %.val6 = load ptr, ptr %4, align 8, !tbaa !35
  %5 = sext i32 %3 to i64
  %6 = getelementptr inbounds i32, ptr %.val6, i64 %5
  store i32 0, ptr %6, align 4, !tbaa !60
  %7 = or disjoint i32 %3, 1
  %8 = sext i32 %7 to i64
  %9 = getelementptr inbounds i32, ptr %.val6, i64 %8
  store i32 0, ptr %9, align 4, !tbaa !60
  %10 = getelementptr i8, ptr %0, i64 248
  %.val = load ptr, ptr %10, align 8, !tbaa !35
  %11 = sext i32 %1 to i64
  %12 = getelementptr inbounds i32, ptr %.val, i64 %11
  store i32 0, ptr %12, align 4, !tbaa !60
  ret void
}